; Function Attrs: nounwind uwtable
define dso_local ptr @zzlFirstInLexRange(ptr noundef %0, ptr noundef readonly captures(none) %1) local_unnamed_addr #0 {
  %3 = tail call ptr @lpSeek(ptr noundef %0, i64 noundef 0) #18
  %4 = tail call i32 @zzlIsInLexRange(ptr noundef %0, ptr noundef %1)
  %.not = icmp eq i32 %4, 0
  %.not1723 = icmp eq ptr %3, null
  %or.cond = select i1 %.not, i1 true, i1 %.not1723
  br i1 %or.cond, label %.loopexit, label %.lr.ph

.lr.ph:                                           ; preds = %2, %11
  %.01524 = phi ptr [ %12, %11 ], [ %3, %2 ]
  %5 = tail call i32 @zzlLexValueGteMin(ptr noundef nonnull %.01524, ptr noundef %1)
  %.not18 = icmp eq i32 %5, 0
  br i1 %.not18, label %8, label %6

6:                                                ; preds = %.lr.ph
  %7 = tail call i32 @zzlLexValueLteMax(ptr noundef nonnull %.01524, ptr noundef %1)
  %.not20 = icmp eq i32 %7, 0
  %..015 = select i1 %.not20, ptr null, ptr %.01524
  br label %.loopexit

8:                                                ; preds = %.lr.ph
  %9 = tail call ptr @lpNext(ptr noundef %0, ptr noundef nonnull %.01524) #18
  %.not19 = icmp eq ptr %9, null
  br i1 %.not19, label %10, label %11, !prof !40

10:                                               ; preds = %8
  tail call void @_serverAssert(ptr noundef nonnull @.str.3, ptr noundef nonnull @.str.1, i32 noundef 1018) #18
  tail call void @abort() #19
  unreachable

11:                                               ; preds = %8
  %12 = tail call ptr @lpNext(ptr noundef %0, ptr noundef nonnull %9) #18
  %.not17 = icmp eq ptr %12, null
  br i1 %.not17, label %.loopexit, label %.lr.ph, !llvm.loop !92

.loopexit:                                        ; preds = %11, %6, %2
  %.0 = phi ptr [ null, %2 ], [ %..015, %6 ], [ null, %11 ]
  ret ptr %.0
}